; Function Attrs: nounwind uwtable
define range(i32 0, 2) i32 @stbi_write_jpg_to_func(ptr noundef %0, ptr noundef %1, i32 noundef %2, i32 noundef %3, i32 noundef %4, ptr noundef captures(address_is_null) %5, i32 noundef %6) local_unnamed_addr #5 {
  %8 = alloca %struct.stbi__write_context, align 8
  call void @llvm.lifetime.start.p0(i64 88, ptr nonnull %8) #26
  %9 = getelementptr inbounds nuw i8, ptr %8, i64 16
  call void @llvm.memset.p0.i64(ptr noundef nonnull align 8 dereferenceable(88) %9, i8 0, i64 72, i1 false)
  store ptr %0, ptr %8, align 8, !tbaa !7
  %10 = getelementptr inbounds nuw i8, ptr %8, i64 8
  store ptr %1, ptr %10, align 8, !tbaa !10
  %11 = call i32 @stbi_write_jpg_core(ptr noundef nonnull %8, i32 noundef %2, i32 noundef %3, i32 noundef %4, ptr noundef %5, i32 noundef %6)
  call void @llvm.lifetime.end.p0(i64 88, ptr nonnull %8) #26
  ret i32 %11
}